; Function Attrs: mustprogress uwtable
define internal noundef i32 @_ZL36gsec_aes_gcm_aead_crypter_tag_lengthPK17gsec_aead_crypterPmPPc(ptr nocapture noundef readonly %crypter, ptr noundef writeonly %tag_length, ptr noundef %error_details) #0 {
entry:
  %cmp = icmp eq ptr %tag_length, null
  br i1 %cmp, label %if.then, label %if.end

if.then:                                          ; preds = %entry
  tail call fastcc void @_ZL21aes_gcm_format_errorsPKcPPc(ptr noundef nonnull @.str.36, ptr noundef %error_details)
  br label %return

if.end:                                           ; preds = %entry
  %tag_length1 = getelementptr inbounds i8, ptr %crypter, i64 16
  %0 = load i64, ptr %tag_length1, align 8
  store i64 %0, ptr %tag_length, align 8
  br label %return

return:                                           ; preds = %if.end, %if.then
  %retval.0 = phi i32 [ 3, %if.then ], [ 0, %if.end ]
  ret i32 %retval.0
}